; Function Attrs: nounwind uwtable
define dso_local i64 @textout(ptr noundef readonly captures(none) %0) local_unnamed_addr #0 {
  %2 = getelementptr inbounds nuw i8, ptr %0, i64 32
  %3 = load i64, ptr %2, align 8
  %4 = inttoptr i64 %3 to ptr
  %5 = tail call ptr @pg_detoast_datum_packed(ptr noundef %4) #19
  %6 = load i8, ptr %5, align 1
  %7 = zext i8 %6 to i32
  %8 = icmp eq i8 %6, 1
  br i1 %8, label %9, label %18

9:                                                ; preds = %1
  %10 = getelementptr inbounds nuw i8, ptr %5, i64 1
  %11 = load i8, ptr %10, align 1
  %12 = icmp eq i8 %11, 1
  %13 = and i8 %11, -2
  %14 = icmp eq i8 %13, 2
  %or.cond.i = or i1 %12, %14
  %15 = icmp eq i8 %11, 18
  %16 = select i1 %15, i32 16, i32 0
  %17 = select i1 %or.cond.i, i32 8, i32 %16
  br label %27

18:                                               ; preds = %1
  %19 = and i32 %7, 1
  %.not.i = icmp eq i32 %19, 0
  br i1 %.not.i, label %23, label %20

20:                                               ; preds = %18
  %21 = lshr i32 %7, 1
  %22 = add nsw i32 %21, -1
  br label %27

23:                                               ; preds = %18
  %24 = load i32, ptr %5, align 4
  %25 = lshr i32 %24, 2
  %26 = add nsw i32 %25, -4
  br label %27

27:                                               ; preds = %23, %20, %9
  %28 = phi i32 [ %17, %9 ], [ %22, %20 ], [ %26, %23 ]
  %29 = add nsw i32 %28, 1
  %30 = sext i32 %29 to i64
  %31 = tail call ptr @palloc(i64 noundef %30) #19
  %32 = load i8, ptr %5, align 1
  %33 = and i8 %32, 1
  %.not21.i = icmp eq i8 %33, 0
  %.v.i = select i1 %.not21.i, i64 4, i64 1
  %34 = getelementptr inbounds nuw i8, ptr %5, i64 %.v.i
  %35 = sext i32 %28 to i64
  tail call void @llvm.memcpy.p0.p0.i64(ptr align 1 %31, ptr nonnull align 1 %34, i64 %35, i1 false)
  %36 = getelementptr inbounds i8, ptr %31, i64 %35
  store i8 0, ptr %36, align 1
  %.not22.i = icmp eq ptr %5, %4
  br i1 %.not22.i, label %text_to_cstring.exit, label %37

37:                                               ; preds = %27
  tail call void @pfree(ptr noundef nonnull %5) #19
  br label %text_to_cstring.exit

text_to_cstring.exit:                             ; preds = %27, %37
  %38 = ptrtoint ptr %31 to i64
  ret i64 %38
}